target datalayout = "e-m:e-p270:32:32-p271:32:32-p272:64:64-i64:64-i128:128-f80:128-n8:16:32:64-S128"
target triple = "x86_64-pc-linux-gnu"

%"class.zxing::Counted" = type <{ ptr, i32, [4 x i8] }>
%"class.zxing::Ref.30" = type { ptr }

; Function Attrs: mustprogress nounwind uwtable
define linkonce_odr hidden noundef ptr @_ZN5zxing7Counted6retainEv(ptr noundef nonnull align 8 dereferenceable(12) %0) #1 comdat align 2 {
  %2 = alloca ptr, align 8
  store ptr %0, ptr %2, align 8, !tbaa !28
  %3 = load ptr, ptr %2, align 8
  %4 = getelementptr inbounds nuw %"class.zxing::Counted", ptr %3, i32 0, i32 1
  %5 = load i32, ptr %4, align 8, !tbaa !30
  %6 = add i32 %5, 1
  store i32 %6, ptr %4, align 8, !tbaa !30
  ret ptr %3
}

; Function Attrs: alwaysinline mustprogress nounwind uwtable
define internal noundef i32 @_ZL14_mm_cvtss_si32Dv4_f(<4 x float> noundef %0) #13 {
  %2 = alloca <4 x float>, align 16
  store <4 x float> %0, ptr %2, align 16, !tbaa !187
  %3 = load <4 x float>, ptr %2, align 16, !tbaa !187
  %4 = call i32 @llvm.x86.sse.cvtss2si(<4 x float> %3)
  ret i32 %4
}

; Function Attrs: alwaysinline mustprogress nounwind uwtable
define internal noundef <4 x float> @_ZL10_mm_set_ssf(float noundef %0) #13 {
  %2 = alloca float, align 4
  %3 = alloca <4 x float>, align 16
  store float %0, ptr %2, align 4, !tbaa !80
  %4 = load float, ptr %2, align 4, !tbaa !80
  %5 = insertelement <4 x float> poison, float %4, i32 0
  %6 = insertelement <4 x float> %5, float 0.000000e+00, i32 1
  %7 = insertelement <4 x float> %6, float 0.000000e+00, i32 2
  %8 = insertelement <4 x float> %7, float 0.000000e+00, i32 3
  store <4 x float> %8, ptr %3, align 16, !tbaa !187
  %9 = load <4 x float>, ptr %3, align 16, !tbaa !187
  ret <4 x float> %9
}

; Function Attrs: mustprogress nounwind uwtable
define linkonce_odr hidden void @_ZN5zxing7Counted7releaseEv(ptr noundef nonnull align 8 dereferenceable(12) %0) #1 comdat align 2 {
  %2 = alloca ptr, align 8
  store ptr %0, ptr %2, align 8, !tbaa !28
  %3 = load ptr, ptr %2, align 8
  %4 = getelementptr inbounds nuw %"class.zxing::Counted", ptr %3, i32 0, i32 1
  %5 = load i32, ptr %4, align 8, !tbaa !30
  %6 = add i32 %5, -1
  store i32 %6, ptr %4, align 8, !tbaa !30
  %7 = getelementptr inbounds nuw %"class.zxing::Counted", ptr %3, i32 0, i32 1
  %8 = load i32, ptr %7, align 8, !tbaa !30
  %9 = icmp eq i32 %8, 0
  br i1 %9, label %10, label %18

10:                                               ; preds = %1
  %11 = getelementptr inbounds nuw %"class.zxing::Counted", ptr %3, i32 0, i32 1
  store i32 -559026175, ptr %11, align 8, !tbaa !30
  %12 = icmp eq ptr %3, null
  br i1 %12, label %17, label %13

13:                                               ; preds = %10
  %14 = load ptr, ptr %3, align 8, !tbaa !12
  %15 = getelementptr inbounds ptr, ptr %14, i64 1
  %16 = load ptr, ptr %15, align 8
  call void %16(ptr noundef nonnull align 8 dereferenceable(12) %3) #16
  br label %17

17:                                               ; preds = %13, %10
  br label %18

18:                                               ; preds = %17, %1
  ret void
}

; Function Attrs: mustprogress nounwind uwtable
define linkonce_odr hidden void @_ZN5zxing3RefINS_11ResultPointEE5resetEPS1_(ptr noundef nonnull align 8 dereferenceable(8) %0, ptr noundef %1) #1 comdat align 2 {
  %3 = alloca ptr, align 8
  %4 = alloca ptr, align 8
  store ptr %0, ptr %3, align 8, !tbaa !102
  store ptr %1, ptr %4, align 8, !tbaa !133
  %5 = load ptr, ptr %3, align 8
  %6 = load ptr, ptr %4, align 8, !tbaa !133
  %7 = icmp ne ptr %6, null
  br i1 %7, label %8, label %11

8:                                                ; preds = %2
  %9 = load ptr, ptr %4, align 8, !tbaa !133
  %10 = call noundef ptr @_ZN5zxing7Counted6retainEv(ptr noundef nonnull align 8 dereferenceable(12) %9)
  br label %11

11:                                               ; preds = %8, %2
  %12 = getelementptr inbounds nuw %"class.zxing::Ref.30", ptr %5, i32 0, i32 0
  %13 = load ptr, ptr %12, align 8, !tbaa !106
  %14 = icmp ne ptr %13, null
  br i1 %14, label %15, label %18

15:                                               ; preds = %11
  %16 = getelementptr inbounds nuw %"class.zxing::Ref.30", ptr %5, i32 0, i32 0
  %17 = load ptr, ptr %16, align 8, !tbaa !106
  call void @_ZN5zxing7Counted7releaseEv(ptr noundef nonnull align 8 dereferenceable(12) %17)
  br label %18

18:                                               ; preds = %15, %11
  %19 = load ptr, ptr %4, align 8, !tbaa !133
  %20 = getelementptr inbounds nuw %"class.zxing::Ref.30", ptr %5, i32 0, i32 0
  store ptr %19, ptr %20, align 8, !tbaa !106
  ret void
}

; Function Attrs: inlinehint mustprogress uwtable
define internal noundef i32 @_ZL7cvRoundf(float noundef %0) #11 {
  %2 = alloca float, align 4
  %3 = alloca <4 x float>, align 16
  store float %0, ptr %2, align 4, !tbaa !80
  call void @llvm.lifetime.start.p0(i64 16, ptr %3) #16
  %4 = load float, ptr %2, align 4, !tbaa !80
  %5 = call noundef <4 x float> @_ZL10_mm_set_ssf(float noundef %4)
  store <4 x float> %5, ptr %3, align 16, !tbaa !187
  %6 = load <4 x float>, ptr %3, align 16, !tbaa !187
  %7 = call noundef i32 @_ZL14_mm_cvtss_si32Dv4_f(<4 x float> noundef %6)
  call void @llvm.lifetime.end.p0(i64 16, ptr %3) #16
  ret i32 %7
}

; Function Attrs: mustprogress nounwind uwtable
define linkonce_odr hidden void @_ZN5zxing3RefINS_11ResultPointEED2Ev(ptr noundef nonnull align 8 dereferenceable(8) %0) unnamed_addr #1 comdat align 2 {
  %2 = alloca ptr, align 8
  store ptr %0, ptr %2, align 8, !tbaa !102
  %3 = load ptr, ptr %2, align 8
  %4 = getelementptr inbounds nuw %"class.zxing::Ref.30", ptr %3, i32 0, i32 0
  %5 = load ptr, ptr %4, align 8, !tbaa !106
  %6 = icmp ne ptr %5, null
  br i1 %6, label %7, label %10

7:                                                ; preds = %1
  %8 = getelementptr inbounds nuw %"class.zxing::Ref.30", ptr %3, i32 0, i32 0
  %9 = load ptr, ptr %8, align 8, !tbaa !106
  call void @_ZN5zxing7Counted7releaseEv(ptr noundef nonnull align 8 dereferenceable(12) %9)
  br label %10

10:                                               ; preds = %7, %1
  ret void
}

; Function Attrs: mustprogress uwtable
define linkonce_odr hidden void @_ZN5zxing3RefINS_11ResultPointEEC2ERKS2_(ptr noundef nonnull align 8 dereferenceable(8) %0, ptr noundef nonnull align 8 dereferenceable(8) %1) unnamed_addr #0 comdat align 2 {
  %3 = alloca ptr, align 8
  %4 = alloca ptr, align 8
  store ptr %0, ptr %3, align 8, !tbaa !102
  store ptr %1, ptr %4, align 8, !tbaa !102
  %5 = load ptr, ptr %3, align 8
  %6 = getelementptr inbounds nuw %"class.zxing::Ref.30", ptr %5, i32 0, i32 0
  store ptr null, ptr %6, align 8, !tbaa !106
  %7 = load ptr, ptr %4, align 8, !tbaa !102
  %8 = getelementptr inbounds nuw %"class.zxing::Ref.30", ptr %7, i32 0, i32 0
  %9 = load ptr, ptr %8, align 8, !tbaa !106
  call void @_ZN5zxing3RefINS_11ResultPointEE5resetEPS1_(ptr noundef nonnull align 8 dereferenceable(8) %5, ptr noundef %9)
  ret void
}

; Function Attrs: mustprogress uwtable
define hidden noundef i32 @_ZN5zxing6qrcode8Detector16computeDimensionENS_3RefINS_11ResultPointEEES4_S4_ff(ptr noundef %0, ptr noundef %1, ptr noundef %2, float noundef %3, float noundef %4) #0 align 2 personality ptr @__gxx_personality_v0 {
  %6 = alloca ptr, align 8
  %7 = alloca ptr, align 8
  %8 = alloca ptr, align 8
  %9 = alloca float, align 4
  %10 = alloca float, align 4
  %11 = alloca i32, align 4
  %12 = alloca %"class.zxing::Ref.30", align 8
  %13 = alloca %"class.zxing::Ref.30", align 8
  %14 = alloca ptr, align 8
  %15 = alloca i32, align 4
  %16 = alloca i32, align 4
  %17 = alloca %"class.zxing::Ref.30", align 8
  %18 = alloca %"class.zxing::Ref.30", align 8
  %19 = alloca float, align 4
  %20 = alloca i32, align 4
  %21 = alloca i32, align 4
  store ptr %0, ptr %6, align 8, !tbaa !102
  store ptr %1, ptr %7, align 8, !tbaa !102
  store ptr %2, ptr %8, align 8, !tbaa !102
  store float %3, ptr %9, align 4, !tbaa !80
  store float %4, ptr %10, align 4, !tbaa !80
  call void @llvm.lifetime.start.p0(i64 4, ptr %11) #16
  call void @_ZN5zxing3RefINS_11ResultPointEEC2ERKS2_(ptr noundef nonnull align 8 dereferenceable(8) %12, ptr noundef nonnull align 8 dereferenceable(8) %0)
  invoke void @_ZN5zxing3RefINS_11ResultPointEEC2ERKS2_(ptr noundef nonnull align 8 dereferenceable(8) %13, ptr noundef nonnull align 8 dereferenceable(8) %1)
          to label %22 unwind label %46

22:                                               ; preds = %5
  %23 = invoke noundef float @_ZN5zxing11ResultPoint8distanceENS_3RefIS0_EES2_(ptr noundef %12, ptr noundef %13)
          to label %24 unwind label %50

24:                                               ; preds = %22
  %25 = load float, ptr %9, align 4, !tbaa !80
  %26 = fdiv float %23, %25
  %27 = fptosi float %26 to i32
  call void @_ZN5zxing3RefINS_11ResultPointEED2Ev(ptr noundef nonnull align 8 dereferenceable(8) %13) #16
  call void @_ZN5zxing3RefINS_11ResultPointEED2Ev(ptr noundef nonnull align 8 dereferenceable(8) %12) #16
  store i32 %27, ptr %11, align 4, !tbaa !75
  call void @llvm.lifetime.start.p0(i64 4, ptr %16) #16
  call void @_ZN5zxing3RefINS_11ResultPointEEC2ERKS2_(ptr noundef nonnull align 8 dereferenceable(8) %17, ptr noundef nonnull align 8 dereferenceable(8) %0)
  invoke void @_ZN5zxing3RefINS_11ResultPointEEC2ERKS2_(ptr noundef nonnull align 8 dereferenceable(8) %18, ptr noundef nonnull align 8 dereferenceable(8) %2)
          to label %28 unwind label %55

28:                                               ; preds = %24
  %29 = invoke noundef float @_ZN5zxing11ResultPoint8distanceENS_3RefIS0_EES2_(ptr noundef %17, ptr noundef %18)
          to label %30 unwind label %59

30:                                               ; preds = %28
  %31 = load float, ptr %10, align 4, !tbaa !80
  %32 = fdiv float %29, %31
  %33 = fptosi float %32 to i32
  call void @_ZN5zxing3RefINS_11ResultPointEED2Ev(ptr noundef nonnull align 8 dereferenceable(8) %18) #16
  call void @_ZN5zxing3RefINS_11ResultPointEED2Ev(ptr noundef nonnull align 8 dereferenceable(8) %17) #16
  store i32 %33, ptr %16, align 4, !tbaa !75
  call void @llvm.lifetime.start.p0(i64 4, ptr %19) #16
  %34 = load i32, ptr %11, align 4, !tbaa !75
  %35 = load i32, ptr %16, align 4, !tbaa !75
  %36 = add nsw i32 %34, %35
  %37 = sitofp i32 %36 to double
  %38 = fdiv double %37, 2.000000e+00
  %39 = fadd double %38, 7.000000e+00
  %40 = fptrunc double %39 to float
  store float %40, ptr %19, align 4, !tbaa !80
  call void @llvm.lifetime.start.p0(i64 4, ptr %20) #16
  %41 = load float, ptr %19, align 4, !tbaa !80
  %42 = call noundef i32 @_ZL7cvRoundf(float noundef %41)
  store i32 %42, ptr %20, align 4, !tbaa !75
  call void @llvm.lifetime.start.p0(i64 4, ptr %21) #16
  %43 = load i32, ptr %20, align 4, !tbaa !75
  %44 = and i32 %43, 3
  store i32 %44, ptr %21, align 4, !tbaa !75
  %45 = load i32, ptr %21, align 4, !tbaa !75
  switch i32 %45, label %70 [
    i32 0, label %64
    i32 2, label %67
  ]

46:                                               ; preds = %5
  %47 = landingpad { ptr, i32 }
          cleanup
  %48 = extractvalue { ptr, i32 } %47, 0
  store ptr %48, ptr %14, align 8
  %49 = extractvalue { ptr, i32 } %47, 1
  store i32 %49, ptr %15, align 4
  br label %54

50:                                               ; preds = %22
  %51 = landingpad { ptr, i32 }
          cleanup
  %52 = extractvalue { ptr, i32 } %51, 0
  store ptr %52, ptr %14, align 8
  %53 = extractvalue { ptr, i32 } %51, 1
  store i32 %53, ptr %15, align 4
  call void @_ZN5zxing3RefINS_11ResultPointEED2Ev(ptr noundef nonnull align 8 dereferenceable(8) %13) #16
  br label %54

54:                                               ; preds = %50, %46
  call void @_ZN5zxing3RefINS_11ResultPointEED2Ev(ptr noundef nonnull align 8 dereferenceable(8) %12) #16
  br label %72

55:                                               ; preds = %24
  %56 = landingpad { ptr, i32 }
          cleanup
  %57 = extractvalue { ptr, i32 } %56, 0
  store ptr %57, ptr %14, align 8
  %58 = extractvalue { ptr, i32 } %56, 1
  store i32 %58, ptr %15, align 4
  br label %63

59:                                               ; preds = %28
  %60 = landingpad { ptr, i32 }
          cleanup
  %61 = extractvalue { ptr, i32 } %60, 0
  store ptr %61, ptr %14, align 8
  %62 = extractvalue { ptr, i32 } %60, 1
  store i32 %62, ptr %15, align 4
  call void @_ZN5zxing3RefINS_11ResultPointEED2Ev(ptr noundef nonnull align 8 dereferenceable(8) %18) #16
  br label %63

63:                                               ; preds = %59, %55
  call void @_ZN5zxing3RefINS_11ResultPointEED2Ev(ptr noundef nonnull align 8 dereferenceable(8) %17) #16
  call void @llvm.lifetime.end.p0(i64 4, ptr %16) #16
  br label %72

64:                                               ; preds = %30
  %65 = load i32, ptr %20, align 4, !tbaa !75
  %66 = add nsw i32 %65, 1
  store i32 %66, ptr %20, align 4, !tbaa !75
  br label %70

67:                                               ; preds = %30
  %68 = load i32, ptr %20, align 4, !tbaa !75
  %69 = add nsw i32 %68, -1
  store i32 %69, ptr %20, align 4, !tbaa !75
  br label %70

70:                                               ; preds = %30, %67, %64
  %71 = load i32, ptr %20, align 4, !tbaa !75
  call void @llvm.lifetime.end.p0(i64 4, ptr %21) #16
  call void @llvm.lifetime.end.p0(i64 4, ptr %20) #16
  call void @llvm.lifetime.end.p0(i64 4, ptr %19) #16
  call void @llvm.lifetime.end.p0(i64 4, ptr %16) #16
  call void @llvm.lifetime.end.p0(i64 4, ptr %11) #16
  ret i32 %71

72:                                               ; preds = %63, %54
  call void @llvm.lifetime.end.p0(i64 4, ptr %11) #16
  br label %73

73:                                               ; preds = %72
  %74 = load ptr, ptr %14, align 8
  %75 = load i32, ptr %15, align 4
  %76 = insertvalue { ptr, i32 } poison, ptr %74, 0
  %77 = insertvalue { ptr, i32 } %76, i32 %75, 1
  resume { ptr, i32 } %77
}