; Function Attrs: mustprogress uwtable
define hidden noundef i32 @_ZN5zxing6qrcode8Detector16computeDimensionENS_3RefINS_11ResultPointEEES4_S4_ff(ptr noundef readonly captures(none) %0, ptr noundef readonly captures(none) %1, ptr noundef readonly captures(none) %2, float noundef %3, float noundef %4) local_unnamed_addr #8 align 2 personality ptr @__gxx_personality_v0 {
  %6 = alloca %"class.zxing::Ref.30", align 8
  %7 = alloca %"class.zxing::Ref.30", align 8
  %8 = alloca %"class.zxing::Ref.30", align 8
  %9 = alloca %"class.zxing::Ref.30", align 8
  %10 = load ptr, ptr %0, align 8, !tbaa !82
  %.not.i.i = icmp eq ptr %10, null
  br i1 %.not.i.i, label %_ZN5zxing3RefINS_11ResultPointEEC2ERKS2_.exit, label %11

11:                                               ; preds = %5
  %12 = getelementptr inbounds nuw i8, ptr %10, i64 8
  %13 = load i32, ptr %12, align 8, !tbaa !3
  %14 = add i32 %13, 1
  store i32 %14, ptr %12, align 8, !tbaa !3
  br label %_ZN5zxing3RefINS_11ResultPointEEC2ERKS2_.exit

_ZN5zxing3RefINS_11ResultPointEEC2ERKS2_.exit:    ; preds = %5, %11
  store ptr %10, ptr %6, align 8, !tbaa !82
  %15 = load ptr, ptr %1, align 8, !tbaa !82
  %.not.i.i19 = icmp eq ptr %15, null
  br i1 %.not.i.i19, label %20, label %16

16:                                               ; preds = %_ZN5zxing3RefINS_11ResultPointEEC2ERKS2_.exit
  %17 = getelementptr inbounds nuw i8, ptr %15, i64 8
  %18 = load i32, ptr %17, align 8, !tbaa !3
  %19 = add i32 %18, 1
  store i32 %19, ptr %17, align 8, !tbaa !3
  br label %20

20:                                               ; preds = %16, %_ZN5zxing3RefINS_11ResultPointEEC2ERKS2_.exit
  store ptr %15, ptr %7, align 8, !tbaa !82
  %21 = invoke noundef float @_ZN5zxing11ResultPoint8distanceENS_3RefIS0_EES2_(ptr noundef nonnull %6, ptr noundef nonnull %7)
          to label %22 unwind label %88

22:                                               ; preds = %20
  %23 = fdiv float %21, %3
  %24 = fptosi float %23 to i32
  %25 = load ptr, ptr %7, align 8, !tbaa !82
  %.not.i = icmp eq ptr %25, null
  br i1 %.not.i, label %_ZN5zxing3RefINS_11ResultPointEED2Ev.exit, label %26

26:                                               ; preds = %22
  %27 = getelementptr inbounds nuw i8, ptr %25, i64 8
  %28 = load i32, ptr %27, align 8, !tbaa !3
  %29 = add i32 %28, -1
  store i32 %29, ptr %27, align 8, !tbaa !3
  %30 = icmp eq i32 %29, 0
  br i1 %30, label %31, label %_ZN5zxing3RefINS_11ResultPointEED2Ev.exit

31:                                               ; preds = %26
  store i32 -559026175, ptr %27, align 8, !tbaa !3
  %32 = load ptr, ptr %25, align 8, !tbaa !8
  %33 = getelementptr inbounds nuw i8, ptr %32, i64 8
  %34 = load ptr, ptr %33, align 8
  call void %34(ptr noundef nonnull align 8 dereferenceable(12) %25) #17
  br label %_ZN5zxing3RefINS_11ResultPointEED2Ev.exit

_ZN5zxing3RefINS_11ResultPointEED2Ev.exit:        ; preds = %22, %26, %31
  %35 = load ptr, ptr %6, align 8, !tbaa !82
  %.not.i21 = icmp eq ptr %35, null
  br i1 %.not.i21, label %_ZN5zxing3RefINS_11ResultPointEED2Ev.exit22, label %36

36:                                               ; preds = %_ZN5zxing3RefINS_11ResultPointEED2Ev.exit
  %37 = getelementptr inbounds nuw i8, ptr %35, i64 8
  %38 = load i32, ptr %37, align 8, !tbaa !3
  %39 = add i32 %38, -1
  store i32 %39, ptr %37, align 8, !tbaa !3
  %40 = icmp eq i32 %39, 0
  br i1 %40, label %41, label %_ZN5zxing3RefINS_11ResultPointEED2Ev.exit22

41:                                               ; preds = %36
  store i32 -559026175, ptr %37, align 8, !tbaa !3
  %42 = load ptr, ptr %35, align 8, !tbaa !8
  %43 = getelementptr inbounds nuw i8, ptr %42, i64 8
  %44 = load ptr, ptr %43, align 8
  call void %44(ptr noundef nonnull align 8 dereferenceable(12) %35) #17
  br label %_ZN5zxing3RefINS_11ResultPointEED2Ev.exit22

_ZN5zxing3RefINS_11ResultPointEED2Ev.exit22:      ; preds = %_ZN5zxing3RefINS_11ResultPointEED2Ev.exit, %36, %41
  %45 = load ptr, ptr %0, align 8, !tbaa !82
  %.not.i.i23 = icmp eq ptr %45, null
  br i1 %.not.i.i23, label %_ZN5zxing3RefINS_11ResultPointEEC2ERKS2_.exit24, label %46

46:                                               ; preds = %_ZN5zxing3RefINS_11ResultPointEED2Ev.exit22
  %47 = getelementptr inbounds nuw i8, ptr %45, i64 8
  %48 = load i32, ptr %47, align 8, !tbaa !3
  %49 = add i32 %48, 1
  store i32 %49, ptr %47, align 8, !tbaa !3
  br label %_ZN5zxing3RefINS_11ResultPointEEC2ERKS2_.exit24

_ZN5zxing3RefINS_11ResultPointEEC2ERKS2_.exit24:  ; preds = %_ZN5zxing3RefINS_11ResultPointEED2Ev.exit22, %46
  store ptr %45, ptr %8, align 8, !tbaa !82
  %50 = load ptr, ptr %2, align 8, !tbaa !82
  %.not.i.i25 = icmp eq ptr %50, null
  br i1 %.not.i.i25, label %55, label %51

51:                                               ; preds = %_ZN5zxing3RefINS_11ResultPointEEC2ERKS2_.exit24
  %52 = getelementptr inbounds nuw i8, ptr %50, i64 8
  %53 = load i32, ptr %52, align 8, !tbaa !3
  %54 = add i32 %53, 1
  store i32 %54, ptr %52, align 8, !tbaa !3
  br label %55

55:                                               ; preds = %51, %_ZN5zxing3RefINS_11ResultPointEEC2ERKS2_.exit24
  store ptr %50, ptr %9, align 8, !tbaa !82
  %56 = invoke noundef float @_ZN5zxing11ResultPoint8distanceENS_3RefIS0_EES2_(ptr noundef nonnull %8, ptr noundef nonnull %9)
          to label %57 unwind label %107

57:                                               ; preds = %55
  %58 = fdiv float %56, %4
  %59 = fptosi float %58 to i32
  %60 = load ptr, ptr %9, align 8, !tbaa !82
  %.not.i27 = icmp eq ptr %60, null
  br i1 %.not.i27, label %_ZN5zxing3RefINS_11ResultPointEED2Ev.exit28, label %61

61:                                               ; preds = %57
  %62 = getelementptr inbounds nuw i8, ptr %60, i64 8
  %63 = load i32, ptr %62, align 8, !tbaa !3
  %64 = add i32 %63, -1
  store i32 %64, ptr %62, align 8, !tbaa !3
  %65 = icmp eq i32 %64, 0
  br i1 %65, label %66, label %_ZN5zxing3RefINS_11ResultPointEED2Ev.exit28

66:                                               ; preds = %61
  store i32 -559026175, ptr %62, align 8, !tbaa !3
  %67 = load ptr, ptr %60, align 8, !tbaa !8
  %68 = getelementptr inbounds nuw i8, ptr %67, i64 8
  %69 = load ptr, ptr %68, align 8
  call void %69(ptr noundef nonnull align 8 dereferenceable(12) %60) #17
  br label %_ZN5zxing3RefINS_11ResultPointEED2Ev.exit28

_ZN5zxing3RefINS_11ResultPointEED2Ev.exit28:      ; preds = %57, %61, %66
  %70 = load ptr, ptr %8, align 8, !tbaa !82
  %.not.i29 = icmp eq ptr %70, null
  br i1 %.not.i29, label %_ZN5zxing3RefINS_11ResultPointEED2Ev.exit30, label %71

71:                                               ; preds = %_ZN5zxing3RefINS_11ResultPointEED2Ev.exit28
  %72 = getelementptr inbounds nuw i8, ptr %70, i64 8
  %73 = load i32, ptr %72, align 8, !tbaa !3
  %74 = add i32 %73, -1
  store i32 %74, ptr %72, align 8, !tbaa !3
  %75 = icmp eq i32 %74, 0
  br i1 %75, label %76, label %_ZN5zxing3RefINS_11ResultPointEED2Ev.exit30

76:                                               ; preds = %71
  store i32 -559026175, ptr %72, align 8, !tbaa !3
  %77 = load ptr, ptr %70, align 8, !tbaa !8
  %78 = getelementptr inbounds nuw i8, ptr %77, i64 8
  %79 = load ptr, ptr %78, align 8
  call void %79(ptr noundef nonnull align 8 dereferenceable(12) %70) #17
  br label %_ZN5zxing3RefINS_11ResultPointEED2Ev.exit30

_ZN5zxing3RefINS_11ResultPointEED2Ev.exit30:      ; preds = %_ZN5zxing3RefINS_11ResultPointEED2Ev.exit28, %71, %76
  %80 = add nsw i32 %59, %24
  %81 = sitofp i32 %80 to double
  %82 = fmul double %81, 5.000000e-01
  %83 = fadd double %82, 7.000000e+00
  %84 = fptrunc double %83 to float
  %85 = insertelement <4 x float> poison, float %84, i64 0
  %86 = call noundef i32 @llvm.x86.sse.cvtss2si(<4 x float> %85)
  %87 = and i32 %86, 3
  switch i32 %87, label %130 [
    i32 0, label %126
    i32 2, label %128
  ]

88:                                               ; preds = %20
  %89 = landingpad { ptr, i32 }
          cleanup
  %90 = load ptr, ptr %7, align 8, !tbaa !82
  %.not.i31 = icmp eq ptr %90, null
  br i1 %.not.i31, label %_ZN5zxing3RefINS_11ResultPointEED2Ev.exit32, label %91

91:                                               ; preds = %88
  %92 = getelementptr inbounds nuw i8, ptr %90, i64 8
  %93 = load i32, ptr %92, align 8, !tbaa !3
  %94 = add i32 %93, -1
  store i32 %94, ptr %92, align 8, !tbaa !3
  %95 = icmp eq i32 %94, 0
  br i1 %95, label %96, label %_ZN5zxing3RefINS_11ResultPointEED2Ev.exit32

96:                                               ; preds = %91
  store i32 -559026175, ptr %92, align 8, !tbaa !3
  %97 = load ptr, ptr %90, align 8, !tbaa !8
  %98 = getelementptr inbounds nuw i8, ptr %97, i64 8
  %99 = load ptr, ptr %98, align 8
  call void %99(ptr noundef nonnull align 8 dereferenceable(12) %90) #17
  br label %_ZN5zxing3RefINS_11ResultPointEED2Ev.exit32

_ZN5zxing3RefINS_11ResultPointEED2Ev.exit32:      ; preds = %96, %91, %88
  %100 = load ptr, ptr %6, align 8, !tbaa !82
  %.not.i33 = icmp eq ptr %100, null
  br i1 %.not.i33, label %_ZN5zxing3RefINS_11ResultPointEED2Ev.exit34, label %101

101:                                              ; preds = %_ZN5zxing3RefINS_11ResultPointEED2Ev.exit32
  %102 = getelementptr inbounds nuw i8, ptr %100, i64 8
  %103 = load i32, ptr %102, align 8, !tbaa !3
  %104 = add i32 %103, -1
  store i32 %104, ptr %102, align 8, !tbaa !3
  %105 = icmp eq i32 %104, 0
  br i1 %105, label %106, label %_ZN5zxing3RefINS_11ResultPointEED2Ev.exit34

106:                                              ; preds = %101
  store i32 -559026175, ptr %102, align 8, !tbaa !3
  br label %_ZN5zxing3RefINS_11ResultPointEED2Ev.exit34.sink.split

107:                                              ; preds = %55
  %108 = landingpad { ptr, i32 }
          cleanup
  %109 = load ptr, ptr %9, align 8, !tbaa !82
  %.not.i35 = icmp eq ptr %109, null
  br i1 %.not.i35, label %_ZN5zxing3RefINS_11ResultPointEED2Ev.exit36, label %110

110:                                              ; preds = %107
  %111 = getelementptr inbounds nuw i8, ptr %109, i64 8
  %112 = load i32, ptr %111, align 8, !tbaa !3
  %113 = add i32 %112, -1
  store i32 %113, ptr %111, align 8, !tbaa !3
  %114 = icmp eq i32 %113, 0
  br i1 %114, label %115, label %_ZN5zxing3RefINS_11ResultPointEED2Ev.exit36

115:                                              ; preds = %110
  store i32 -559026175, ptr %111, align 8, !tbaa !3
  %116 = load ptr, ptr %109, align 8, !tbaa !8
  %117 = getelementptr inbounds nuw i8, ptr %116, i64 8
  %118 = load ptr, ptr %117, align 8
  call void %118(ptr noundef nonnull align 8 dereferenceable(12) %109) #17
  br label %_ZN5zxing3RefINS_11ResultPointEED2Ev.exit36

_ZN5zxing3RefINS_11ResultPointEED2Ev.exit36:      ; preds = %115, %110, %107
  %119 = load ptr, ptr %8, align 8, !tbaa !82
  %.not.i37 = icmp eq ptr %119, null
  br i1 %.not.i37, label %_ZN5zxing3RefINS_11ResultPointEED2Ev.exit34, label %120

120:                                              ; preds = %_ZN5zxing3RefINS_11ResultPointEED2Ev.exit36
  %121 = getelementptr inbounds nuw i8, ptr %119, i64 8
  %122 = load i32, ptr %121, align 8, !tbaa !3
  %123 = add i32 %122, -1
  store i32 %123, ptr %121, align 8, !tbaa !3
  %124 = icmp eq i32 %123, 0
  br i1 %124, label %125, label %_ZN5zxing3RefINS_11ResultPointEED2Ev.exit34

125:                                              ; preds = %120
  store i32 -559026175, ptr %121, align 8, !tbaa !3
  br label %_ZN5zxing3RefINS_11ResultPointEED2Ev.exit34.sink.split

126:                                              ; preds = %_ZN5zxing3RefINS_11ResultPointEED2Ev.exit30
  %127 = add nsw i32 %86, 1
  br label %130

128:                                              ; preds = %_ZN5zxing3RefINS_11ResultPointEED2Ev.exit30
  %129 = add nsw i32 %86, -1
  br label %130

130:                                              ; preds = %128, %126, %_ZN5zxing3RefINS_11ResultPointEED2Ev.exit30
  %.011 = phi i32 [ %86, %_ZN5zxing3RefINS_11ResultPointEED2Ev.exit30 ], [ %129, %128 ], [ %127, %126 ]
  ret i32 %.011

_ZN5zxing3RefINS_11ResultPointEED2Ev.exit34.sink.split: ; preds = %106, %125
  %.sink42 = phi ptr [ %119, %125 ], [ %100, %106 ]
  %.pn16.pn.ph = phi { ptr, i32 } [ %108, %125 ], [ %89, %106 ]
  %131 = load ptr, ptr %.sink42, align 8, !tbaa !8
  %132 = getelementptr inbounds nuw i8, ptr %131, i64 8
  %133 = load ptr, ptr %132, align 8
  call void %133(ptr noundef nonnull align 8 dereferenceable(12) %.sink42) #17
  br label %_ZN5zxing3RefINS_11ResultPointEED2Ev.exit34

_ZN5zxing3RefINS_11ResultPointEED2Ev.exit34:      ; preds = %_ZN5zxing3RefINS_11ResultPointEED2Ev.exit34.sink.split, %120, %_ZN5zxing3RefINS_11ResultPointEED2Ev.exit36, %101, %_ZN5zxing3RefINS_11ResultPointEED2Ev.exit32
  %.pn16.pn = phi { ptr, i32 } [ %89, %_ZN5zxing3RefINS_11ResultPointEED2Ev.exit32 ], [ %89, %101 ], [ %108, %_ZN5zxing3RefINS_11ResultPointEED2Ev.exit36 ], [ %108, %120 ], [ %.pn16.pn.ph, %_ZN5zxing3RefINS_11ResultPointEED2Ev.exit34.sink.split ]
  resume { ptr, i32 } %.pn16.pn
}